; Function Attrs: mustprogress uwtable
define noundef zeroext i1 @_ZNK8QuantLib7Finland4Impl13isBusinessDayERKNS_4DateE(ptr noundef nonnull align 8 dereferenceable(104) %this, ptr noundef nonnull align 8 dereferenceable(8) %date) unnamed_addr #0 align 2 {
entry:
  %0 = load i64, ptr %date, align 8, !tbaa !23
  %rem.i = srem i64 %0, 7
  %conv.i = trunc nsw i64 %rem.i to i32
  %cmp.i = icmp eq i64 %rem.i, 0
  %cond.i = select i1 %cmp.i, i32 7, i32 %conv.i
  %call.i.i = tail call noundef i32 @_ZNK8QuantLib4Date4yearEv(ptr noundef nonnull align 8 dereferenceable(8) %date)
  %call2.i.i = tail call noundef i64 @_ZN8QuantLib4Date10yearOffsetEi(i32 noundef %call.i.i)
  %sub.i.i = sub nsw i64 %0, %call2.i.i
  %conv.i.i = trunc i64 %sub.i.i to i32
  %call2.i = tail call noundef i32 @_ZNK8QuantLib4Date5monthEv(ptr noundef nonnull align 8 dereferenceable(8) %date)
  %call3.i = tail call noundef i32 @_ZNK8QuantLib4Date4yearEv(ptr noundef nonnull align 8 dereferenceable(8) %date)
  %call4.i = tail call noundef zeroext i1 @_ZN8QuantLib4Date6isLeapEi(i32 noundef %call3.i)
  %call5.i = tail call noundef i32 @_ZN8QuantLib4Date11monthOffsetENS_5MonthEb(i32 noundef %call2.i, i1 noundef zeroext %call4.i)
  %sub.i = sub nsw i32 %conv.i.i, %call5.i
  %1 = load i64, ptr %date, align 8, !tbaa !23
  %call.i = tail call noundef i32 @_ZNK8QuantLib4Date4yearEv(ptr noundef nonnull align 8 dereferenceable(8) %date)
  %call2.i41 = tail call noundef i64 @_ZN8QuantLib4Date10yearOffsetEi(i32 noundef %call.i)
  %sub.i42 = sub nsw i64 %1, %call2.i41
  %conv.i43 = trunc i64 %sub.i42 to i32
  %call4 = tail call noundef i32 @_ZNK8QuantLib4Date5monthEv(ptr noundef nonnull align 8 dereferenceable(8) %date)
  %call5 = tail call noundef i32 @_ZNK8QuantLib4Date4yearEv(ptr noundef nonnull align 8 dereferenceable(8) %date)
  %call6 = tail call noundef i32 @_ZN8QuantLib8Calendar11WesternImpl12easterMondayEi(i32 noundef %call5)
  %call7 = tail call noundef zeroext i1 @_ZNK8QuantLib8Calendar11WesternImpl9isWeekendENS_7WeekdayE(ptr noundef nonnull align 8 dereferenceable(104) %this, i32 noundef %cond.i)
  br i1 %call7, label %cleanup, label %lor.lhs.false

lor.lhs.false:                                    ; preds = %entry
  %cmp = icmp eq i32 %sub.i, 1
  %cmp8 = icmp eq i32 %call4, 1
  %or.cond = and i1 %cmp, %cmp8
  br i1 %or.cond, label %cleanup, label %lor.lhs.false9

lor.lhs.false9:                                   ; preds = %lor.lhs.false
  %cmp10 = icmp eq i32 %sub.i, 6
  %or.cond1 = and i1 %cmp10, %cmp8
  %sub = add nsw i32 %call6, -3
  %cmp14 = icmp eq i32 %sub, %conv.i43
  %or.cond34 = select i1 %or.cond1, i1 true, i1 %cmp14
  %cmp16 = icmp eq i32 %call6, %conv.i43
  %or.cond35 = or i1 %cmp16, %or.cond34
  %add = add nsw i32 %call6, 38
  %cmp18 = icmp eq i32 %add, %conv.i43
  %or.cond36 = select i1 %or.cond35, i1 true, i1 %cmp18
  %cmp22 = icmp eq i32 %call4, 5
  %or.cond2 = and i1 %cmp, %cmp22
  %or.cond37 = or i1 %or.cond2, %or.cond36
  br i1 %or.cond37, label %cleanup, label %lor.lhs.false23

lor.lhs.false23:                                  ; preds = %lor.lhs.false9
  %cmp24 = icmp eq i32 %cond.i, 6
  %2 = add i32 %sub.i, -19
  %3 = icmp ult i32 %2, 7
  %or.cond4 = and i1 %cmp24, %3
  %cmp30 = icmp eq i32 %call4, 6
  %or.cond5 = and i1 %or.cond4, %cmp30
  br i1 %or.cond5, label %cleanup, label %lor.lhs.false31

lor.lhs.false31:                                  ; preds = %lor.lhs.false23
  %cmp34 = icmp eq i32 %call4, 12
  %4 = and i32 %sub.i, -2
  %5 = icmp eq i32 %4, 24
  %cmp44 = icmp eq i32 %sub.i, 26
  %6 = or i1 %cmp44, %5
  %or.cond3946 = or i1 %cmp10, %6
  %or.cond40 = and i1 %or.cond3946, %cmp34
  %not.or.cond40 = xor i1 %or.cond40, true
  br label %cleanup

cleanup:                                          ; preds = %lor.lhs.false31, %entry, %lor.lhs.false, %lor.lhs.false9, %lor.lhs.false23
  %retval.0 = phi i1 [ false, %lor.lhs.false23 ], [ false, %lor.lhs.false9 ], [ false, %lor.lhs.false ], [ false, %entry ], [ %not.or.cond40, %lor.lhs.false31 ]
  ret i1 %retval.0
}